"File: modbus.c      Assembler  Version HGASM0202      Page 1


   1  0000              ; Generated by holtek-gcc v3.19, Thu Nov 03 13:21:59 2022
   2  0000              ; 
   3  0000              ; Configuration:
   4  0000              ;       with long instruction
   5  0000              ;       Single ROM, Multi-RAM
   6  0000              ;       bits_per_rom_unit:16
   7  0000              ;       with mp1
   8  0000              ;       with tbhp, address(0x9)
   9  0000              ;          Use tabrd-const
  10  0000              ;       
  11  0000              ; SFR address of long-instruction arch:
  12  0000              ;    mp0 = -1,1,0
  13  0000              ;    mp1 = 4,3,2
  14  0000              ;    mp2 = 14,13,12
  15  0000              ;    tbp = 9,7,8
  16  0000              ;    acc = 5
  17  0000              ;    pcl = 6
  18  0000              ;    status = 10
  19  0000              ;    bp = 11
  20  0000              ;    intc = 32
  21  0000              ;       
  22  0000              ;       
  23  0000              ; use 'tabrdc' instead of 'tabrd'
  24  0000              ;       
  25  0000              
  26  0000              #pragma translator "holtek-gcc 4.6.4" "3.19" "build 20130711"
  27  0000              ; Rebuild 718
  28  0000              
  29  0000              ir equ [2]
  30  0000              mp equ [3]
  31  0000              sbp equ [4]
  32  0000              acc equ [5]
  33  0000              bp equ [11]
  34  0000              tblp equ [7]
  35  0000              tbhp equ [9]
  36  0000              status equ [10]
  37  0000              c equ [10].0
  38  0000              ac equ [10].1
  39  0000              z equ [10].2
  40  0000              ov equ [10].3
  41  0000              cz equ [10].6
  42  0000              sc equ [10].7
  43  0000              intc equ [32]
  44  0000              
  45  0000              extern ra:byte
  46  0000              extern rb:byte
  47  0000              extern rc:byte
  48  0000              extern rd:byte
  49  0000              extern re:byte
  50  0000              extern rf:byte
  51  0000              extern rg:byte
  52  0000              extern rh:byte
  53  0000              extern _Crom2Prom:near
  54  0000              extern _Crom2PromNext:near
  55  0000              
  56  0000              RAMBANK 0 @BITDATASEC, @BITDATASEC1
  57  0000              @HCCINIT	.section 'data'
  58  0000              @HCCINIT0	.section 'data'
  59  0000              @BITDATASEC	 .section 'data'
"File: modbus.ASM    Assembler  Version HGASM0202      Page 2

  60  0000              @BITDATASEC1	 .section 'data'
  61  0000              
  62  0000              #pragma debug scope 1 1
  63  0000              	extern __DELAY3:near
  64  0000              	extern __DELAYX3:near
  65  0000              	extern __DELAYX6:near
  66  0000              	extern __DELAYY5:near
  67  0000              	extern __DELAYY3:near
  68  0000              	extern _builtin_holtek_delay_2:byte

  11  0000              #line 11 "E:\work\Quby\CODE\holtek dev\test5342\modbus.c"
  11  0000              public _slave_id
  11  0000              @HCCINIT0_slave_id .section 'data'
  11  0000              _slave_id	db 0
  11  0001              #pragma debug variable 8 1 _slave_id "slave_id"
  11  0001              
  11  0000              @HCCINIT .section 'data'
  11  0000              public _uart_index
  11  0000              @HCCINIT	.section 'data'
  12  0000              #line 12 "E:\work\Quby\CODE\holtek dev\test5342\modbus.c"
  12  0000              @HCCINIT_uart_index .section 'data'
  12  0000              _uart_index label byte
  12  0000              #pragma debug variable 8 1 _uart_index "uart_index"
  12  0000              	db 0
  12  0000              @ROMDATA_BASE .section inpage 'code'
  12  0000              	db 0
  12  0001              @HCCINIT_uart_index .section 'data'
  13  0001              #line 13 "E:\work\Quby\CODE\holtek dev\test5342\modbus.c"
  13  0001              public _frame
  13  0000              @HCCINIT0_frame .section 'data'
  13  0000  0007[       _frame	db 7 dup(0)
            00
            ]
  13  0007              #pragma debug array 42 8 7 1
  13  0007              #pragma debug array 42 8 7 1
  13  0007              #pragma debug variable 42 1 _frame "frame"
  13  0007              
  13  0000              @HCCINIT .section 'data'
  13  0000              ___simc0 equ [86]
  13  0000              ___uucr1 equ [87]
  13  0000              ___uucr2 equ [88]
  13  0000              ___ubrg equ [90]
  13  0000              ___intc0 equ [32]
  13  0000              ___intc1 equ [33]
  13  0000              public _UART_Init
  13  0000              #pragma debug scope 2 1
  19  0000              #line 19 "E:\work\Quby\CODE\holtek dev\test5342\modbus.c"
  19  0000              _UART_Init .section 'code'
  19  0000              _UART_Init proc
  19  0000              public _UART_Init_2
  19  0000  0003[           local _UART_Init_2 db 3 dup(?)	; 2,1
            00
            ]
  19  0000  0080     R  	mov _UART_Init_2[2],a
  19  0001              #pragma debug variable 8 2 _UART_Init_2+2 "status1"
  19  0001              #pragma debug variable 8 2 _UART_Init_2+0 "status2"
  19  0001              #pragma debug variable 8 2 _UART_Init_2+1 "N"
  21  0001              #line 21 "E:\work\Quby\CODE\holtek dev\test5342\modbus.c"
  21  0001  3256        	set [86].4
  26  0002              #line 26 "E:\work\Quby\CODE\holtek dev\test5342\modbus.c"
"File: modbus.c      Assembler  Version HGASM0202      Page 3

  26  0002  33D7        	set [87].7
  27  0003              #line 27 "E:\work\Quby\CODE\holtek dev\test5342\modbus.c"
  27  0003  33D8        	set [88].7
  28  0004              #line 28 "E:\work\Quby\CODE\holtek dev\test5342\modbus.c"
  28  0004  3358        	set [88].6
  34  0005              #line 34 "E:\work\Quby\CODE\holtek dev\test5342\modbus.c"
  34  0005  0758        	mov a,[88]
  34  0006  0080     E  	mov ra,a
  34  0007  0700     E  	mov a,ra
  34  0008  0080     E  	mov rb,a
  34  0009  0700     R  	mov a,_UART_Init_2[2]
  34  000A  0080     E  	mov ra,a
  34  000B  0F3F        	mov a,63
  34  000C  0680     E  	andm a,ra
  34  000D  0700     E  	mov a,rb
  34  000E  0580     E  	orm a,ra
  34  000F  0700     E  	mov a,ra
  34  0010  00D8        	mov [88],a
  37  0011              #line 37 "E:\work\Quby\CODE\holtek dev\test5342\modbus.c"
  37  0011  0700     R  	mov a,_UART_Init_2[1]
  37  0012  00DA        	mov [90],a
  42  0013              #line 42 "E:\work\Quby\CODE\holtek dev\test5342\modbus.c"
  42  0013  0700     R  	mov a,_UART_Init_2[2]
  42  0014  0080     E  	mov ra,a
  42  0015  1F00     E  	clr rb
  42  0016  0F40        	mov a,64  
  42  0017  0680     E  	andm a,ra  
  42  0018  0F00        	mov a,0  
  42  0019  0680     E  	andm a,rb
  42  001A  0700     E  	mov a,ra
  42  001B  0500     E  	or a,rb
  42  001C  3D0A        	sz z
  42  001D  2800     R  	jmp _L2
  43  001E              #line 43 "E:\work\Quby\CODE\holtek dev\test5342\modbus.c"
  43  001E  3020        	set [32].0
  44  001F              #line 44 "E:\work\Quby\CODE\holtek dev\test5342\modbus.c"
  44  001F  3121        	set [33].2
  44  0020              _L2:
  49  0020              #line 49 "E:\work\Quby\CODE\holtek dev\test5342\modbus.c"
  49  0020  0757        	mov a,[87]
  49  0021  0080     E  	mov ra,a
  49  0022  0700     R  	mov a,_UART_Init_2[0]
  49  0023  0580     E  	orm a,ra
  49  0024  0700     E  	mov a,ra
  49  0025  00D7        	mov [87],a
  49  0026  0003        	ret
  49  0027              _UART_Init endp
  49  0027              #line 49 "E:\work\Quby\CODE\holtek dev\test5342\modbus.c"
  49  0027              #pragma debug scope 1 1
  49  0027              ___pa equ [20]
  49  0027              ___utxr_rxr equ [89]
  49  0027              ___uusr equ [91]
  49  0027              public _UartCallBack
  49  0027              #pragma debug scope 3 1
  58  0027              #line 58 "E:\work\Quby\CODE\holtek dev\test5342\modbus.c"
  58  0000              @UartCallBack_code .section at 24 'code'
  58  0000              ifdef INTERRUPT_DELAY
  58  0000              	nop
  58  0000              endif
  58  0000  0080     E  	mov r1,a
"File: modbus.c      Assembler  Version HGASM0202      Page 4

  58  0001  070A        	mov a,status
  58  0002              ifndef INTERRUPT_DELAY
  58  0002  0080     E  	mov r2,a
  58  0003              endif
  58  0003  2800     R  	jmp _UartCallBack
  58  0004              #pragma debug scope 1 1
  58  0004              @dummy24 endp
  58  0004              #pragma debug scope 4 1
  58  0000              _UartCallBack .section 'code'
  58  0000              _UartCallBack proc
  58  0000  0004[       local _UartCallBack_2 db 4 dup(?)
            00
            ]
  58  0000              ifdef INTERRUPT_DELAY
  58  0000              	mov r2,a
  58  0000              endif
  58  0000  0703        	mov a,mp
  58  0001  0080     E  	mov r3,a
  58  0002  0704        	mov a,sbp
  58  0003  0080     E  	mov r4,a
  58  0004  0707        	mov a,tblp
  58  0005  0080     E  	mov r5,a
  58  0006  0709        	mov a,tbhp
  58  0007  0080     E  	mov r6,a
  59  0008              #line 59 "E:\work\Quby\CODE\holtek dev\test5342\modbus.c"
  59  0008  3494        	clr [20].1
  59  0009              _L15:
  65  0009              #line 65 "E:\work\Quby\CODE\holtek dev\test5342\modbus.c"
  65  0009  0700     R  	mov a,_frame[1]
  65  000A  0080     E  	mov ra,a
  65  000B  0700     E  	mov a,ra
  65  000C  0080     R  	mov _frame[0],a
  66  000D              #line 66 "E:\work\Quby\CODE\holtek dev\test5342\modbus.c"
  66  000D  0700     R  	mov a,_frame[2]
  66  000E  0080     E  	mov ra,a
  66  000F  0700     E  	mov a,ra
  66  0010  0080     R  	mov _frame[1],a
  67  0011              #line 67 "E:\work\Quby\CODE\holtek dev\test5342\modbus.c"
  67  0011  0700     R  	mov a,_frame[3]
  67  0012  0080     E  	mov ra,a
  67  0013  0700     E  	mov a,ra
  67  0014  0080     R  	mov _frame[2],a
  68  0015              #line 68 "E:\work\Quby\CODE\holtek dev\test5342\modbus.c"
  68  0015  0700     R  	mov a,_frame[4]
  68  0016  0080     E  	mov ra,a
  68  0017  0700     E  	mov a,ra
  68  0018  0080     R  	mov _frame[3],a
  69  0019              #line 69 "E:\work\Quby\CODE\holtek dev\test5342\modbus.c"
  69  0019  0700     R  	mov a,_frame[5]
  69  001A  0080     E  	mov ra,a
  69  001B  0700     E  	mov a,ra
  69  001C  0080     R  	mov _frame[4],a
  70  001D              #line 70 "E:\work\Quby\CODE\holtek dev\test5342\modbus.c"
  70  001D  0700     R  	mov a,_frame[6]
  70  001E  0080     E  	mov ra,a
  70  001F  0700     E  	mov a,ra
  70  0020  0080     R  	mov _frame[5],a
  71  0021              #line 71 "E:\work\Quby\CODE\holtek dev\test5342\modbus.c"
  71  0021  0759        	mov a,[89]
  71  0022  0080     E  	mov ra,a
"File: modbus.c      Assembler  Version HGASM0202      Page 5

  71  0023  0700     E  	mov a,ra
  71  0024  0080     R  	mov _frame[6],a
  73  0025              #line 73 "E:\work\Quby\CODE\holtek dev\test5342\modbus.c"
  73  0025  0700     R  	mov a,_uart_index[0]
  73  0026  0080     E  	mov ra,a
  73  0027  1480     E  	inc ra
  73  0028  0700     E  	mov a,ra
  73  0029  0080     R  	mov _uart_index[0],a
  75  002A              #line 75 "E:\work\Quby\CODE\holtek dev\test5342\modbus.c"
  75  002A  0700     R  	mov a,_frame[0]
  75  002B  0080     E  	mov ra,a
  75  002C  0700     E  	mov a,ra
  75  002D  0AAA        	sub a,170
  75  002E  390A        	snz z
  75  002F  2800     R  	jmp _L4
  75  0030  0700     R  	mov a,_frame[6]
  75  0031  0080     E  	mov ra,a
  75  0032  0700     E  	mov a,ra
  75  0033  0ABB        	sub a,187
  75  0034  390A        	snz z
  75  0035  2800     R  	jmp _L4
  75  0036  0700     R  	mov a,_frame[1]
  75  0037  0080     E  	mov rb,a
  75  0038  0700     R  	mov a,_slave_id[0]
  75  0039  0080     E  	mov ra,a
  75  003A  0700     E  	mov a,rb
  75  003B  0200     E  	sub a,ra
  75  003C  390A        	snz z
  75  003D  2800     R  	jmp _L4
  75  003E              #pragma debug scope 5 4
  75  003E              ;begin block, line: 75.-1
  75  003E              #pragma debug variable 8 5 _UartCallBack_2+0 "i"
  75  003E              #pragma debug variable 8 5 _UartCallBack_2+1 "crc"
  78  003E              #line 78 "E:\work\Quby\CODE\holtek dev\test5342\modbus.c"
  78  003E  1F00     R  	clr _UartCallBack_2[0]
  79  003F              #line 79 "E:\work\Quby\CODE\holtek dev\test5342\modbus.c"
  79  003F  1F80     R  	set _UartCallBack_2[1]
  81  0040              #line 81 "E:\work\Quby\CODE\holtek dev\test5342\modbus.c"
  81  0040  1F00     R  	clr _UartCallBack_2[0]
  81  0041  2800     R  	jmp _L5
  81  0042              _L6:
  82  0042              #line 82 "E:\work\Quby\CODE\holtek dev\test5342\modbus.c"
  82  0042  0700     R  	mov a,_UartCallBack_2[0]
  82  0043  0080     E  	mov ra,a
  82  0044  1F00     E  	clr rb
  82  0045  0F00     R  	mov a,low offset _frame
  82  0046  0380     E  	addm a,ra
  82  0047  0F00     R  	mov a,high offset _frame
  82  0048  1380     E  	adcm a,rb
  82  0049  0700     E  	mov a,ra
  82  004A  0083        	mov mp,a
  82  004B  0700     E  	mov a,rb
  82  004C  0084        	mov sbp,a
  82  004D  2000     E  	call _Crom2Prom
  82  004E  0080     E  	mov ra,a
  82  004F  0700     E  	mov a,ra
  82  0050  0480     R  	xorm a,_UartCallBack_2[1]
  81  0051              #line 81 "E:\work\Quby\CODE\holtek dev\test5342\modbus.c"
  81  0051  0700     R  	mov a,_UartCallBack_2[0]
  81  0052  0080     E  	mov ra,a
"File: modbus.c      Assembler  Version HGASM0202      Page 6

  81  0053  1400     E  	inca ra
  81  0054  0080     R  	mov _UartCallBack_2[0],a
  81  0055              _L5:
  81  0055  0F04        	mov a,4
  81  0056  0200     R  	sub a,_UartCallBack_2[0]
  81  0057  3C0A        	sz c
  81  0058  2800     R  	jmp _L6
  85  0059              #line 85 "E:\work\Quby\CODE\holtek dev\test5342\modbus.c"
  85  0059  0700     R  	mov a,_frame[5]
  85  005A  0080     E  	mov ra,a
  85  005B  0700     E  	mov a,ra
  85  005C  0200     R  	sub a,_UartCallBack_2[1]
  85  005D  390A        	snz z
  85  005E  2800     R  	jmp _L7
  85  005F              #pragma debug scope 6 5
  85  005F              ;begin block, line: 85.-1
  85  005F              #pragma debug variable 8 6 _UartCallBack_2+2 "i"
  85  005F              #pragma debug variable 8 6 _UartCallBack_2+3 "crc"
  86  005F              #line 86 "E:\work\Quby\CODE\holtek dev\test5342\modbus.c"
  86  005F  0FAA        	mov a,170
  86  0060  0080     R  	mov _frame[0],a
  86  0061  0700     R  	mov a,_slave_id[0]
  86  0062  0080     E  	mov ra,a
  86  0063  0700     E  	mov a,ra
  86  0064  0080     R  	mov _frame[1],a
  86  0065  0700     E  	mov a,_sensor[0]
  86  0066  0080     E  	mov ra,a
  86  0067  0700     E  	mov a,_sensor[1]
  86  0068  0080     E  	mov rb,a
  86  0069  0700     E  	mov a,_sensor[2]
  86  006A  0080     E  	mov rc,a
  86  006B  0700     E  	mov a,_sensor[3]
  86  006C  0080     E  	mov rd,a
  86  006D  0700     E  	mov a,rc
  86  006E  0080     E  	mov ra,a
  86  006F  0700     E  	mov a,rd
  86  0070  0080     E  	mov rb,a
  86  0071  1F00     E  	clr rd
  86  0072  1F00     E  	clr rc
  86  0073  0700     E  	mov a,ra
  86  0074  0080     R  	mov _frame[2],a
  86  0075  0700     E  	mov a,_sensor[0]
  86  0076  0080     E  	mov ra,a
  86  0077  0700     E  	mov a,_sensor[1]
  86  0078  0080     E  	mov rb,a
  86  0079  0700     E  	mov a,_sensor[2]
  86  007A  0080     E  	mov rc,a
  86  007B  0700     E  	mov a,_sensor[3]
  86  007C  0080     E  	mov rd,a
  86  007D  0700     E  	mov a,rb
  86  007E  0080     E  	mov ra,a
  86  007F  0700     E  	mov a,rc
  86  0080  0080     E  	mov rb,a
  86  0081  0700     E  	mov a,rd
  86  0082  0080     E  	mov rc,a
  86  0083  1F00     E  	clr rd
  86  0084  0700     E  	mov a,ra
  86  0085  0080     R  	mov _frame[3],a
  86  0086  0700     E  	mov a,_sensor[0]
  86  0087  0080     E  	mov ra,a
"File: modbus.c      Assembler  Version HGASM0202      Page 7

  86  0088  0700     E  	mov a,_sensor[1]
  86  0089  0080     E  	mov rb,a
  86  008A  0700     E  	mov a,_sensor[2]
  86  008B  0080     E  	mov rc,a
  86  008C  0700     E  	mov a,_sensor[3]
  86  008D  0080     E  	mov rd,a
  86  008E  0700     E  	mov a,ra
  86  008F  0080     R  	mov _frame[4],a
  86  0090  1F00     R  	clr _UartCallBack_2[2]
  86  0091  1F80     R  	set _UartCallBack_2[3]
  86  0092  1F00     R  	clr _UartCallBack_2[2]
  86  0093  2800     R  	jmp _L8
  86  0094              _L9:
  86  0094  0700     R  	mov a,_UartCallBack_2[2]
  86  0095  0080     E  	mov ra,a
  86  0096  1F00     E  	clr rb
  86  0097  0F00     R  	mov a,low offset _frame
  86  0098  0380     E  	addm a,ra
  86  0099  0F00     R  	mov a,high offset _frame
  86  009A  1380     E  	adcm a,rb
  86  009B  0700     E  	mov a,ra
  86  009C  0083        	mov mp,a
  86  009D  0700     E  	mov a,rb
  86  009E  0084        	mov sbp,a
  86  009F  2000     E  	call _Crom2Prom
  86  00A0  0080     E  	mov ra,a
  86  00A1  0700     E  	mov a,ra
  86  00A2  0480     R  	xorm a,_UartCallBack_2[3]
  86  00A3  0700     R  	mov a,_UartCallBack_2[2]
  86  00A4  0080     E  	mov ra,a
  86  00A5  1400     E  	inca ra
  86  00A6  0080     R  	mov _UartCallBack_2[2],a
  86  00A7              _L8:
  86  00A7  0F04        	mov a,4
  86  00A8  0200     R  	sub a,_UartCallBack_2[2]
  86  00A9  3C0A        	sz c
  86  00AA  2800     R  	jmp _L9
  86  00AB  0700     R  	mov a,_UartCallBack_2[3]
  86  00AC  0080     R  	mov _frame[5],a
  86  00AD  0FBB        	mov a,187
  86  00AE  0080     R  	mov _frame[6],a
  86  00AF  3094        	set [20].1
  86  00B0  1F00     R  	clr _UartCallBack_2[2]
  86  00B1  2800     R  	jmp _L10
  86  00B2              _L12:
  86  00B2              	;nop
  86  00B2              _L11:
  86  00B2  075B        	mov a,[91]
  86  00B3  0080     E  	mov ra,a
  86  00B4  0F01        	mov a,1
  86  00B5  0680     E  	andm a,ra
  86  00B6  1E00     E  	snz ra
  86  00B7  2800     R  	jmp _L11
  86  00B8  0700     R  	mov a,_UartCallBack_2[2]
  86  00B9  0080     E  	mov ra,a
  86  00BA  1F00     E  	clr rb
  86  00BB  0F00     R  	mov a,low offset _frame
  86  00BC  0380     E  	addm a,ra
  86  00BD  0F00     R  	mov a,high offset _frame
  86  00BE  1380     E  	adcm a,rb
"File: modbus.c      Assembler  Version HGASM0202      Page 8

  86  00BF  0700     E  	mov a,ra
  86  00C0  0083        	mov mp,a
  86  00C1  0700     E  	mov a,rb
  86  00C2  0084        	mov sbp,a
  86  00C3  2000     E  	call _Crom2Prom
  86  00C4  0080     E  	mov ra,a
  86  00C5  0700     E  	mov a,ra
  86  00C6  00D9        	mov [89],a
  86  00C7  0700     R  	mov a,_UartCallBack_2[2]
  86  00C8  0080     E  	mov ra,a
  86  00C9  1400     E  	inca ra
  86  00CA  0080     R  	mov _UartCallBack_2[2],a
  86  00CB              _L10:
  86  00CB  0F06        	mov a,6
  86  00CC  0200     R  	sub a,_UartCallBack_2[2]
  86  00CD  3C0A        	sz c
  86  00CE  2800     R  	jmp _L12
  86  00CF              	;nop
  86  00CF              _L13:
  86  00CF  075B        	mov a,[91]
  86  00D0  0080     E  	mov ra,a
  86  00D1  0F02        	mov a,2
  86  00D2  0680     E  	andm a,ra
  86  00D3  1E00     E  	snz ra
  86  00D4  2800     R  	jmp _L13
  86  00D5  3494        	clr [20].1
  87  00D6              #line 87 "E:\work\Quby\CODE\holtek dev\test5342\modbus.c"
  87  00D6  1F00     R  	clr _uart_index[0]
  87  00D7              #pragma debug scope 5 4
  87  00D7              #pragma debug scope 4 1
  75  00D7              #line 75 "E:\work\Quby\CODE\holtek dev\test5342\modbus.c"
  75  00D7  2800     R  	jmp _L14
  75  00D8              _L7:
  75  00D8  2800     R  	jmp _L14
  75  00D9              _L4:
  93  00D9              #line 93 "E:\work\Quby\CODE\holtek dev\test5342\modbus.c"
  93  00D9  1F00     R  	clr _uart_index[0]
  93  00DA              _L14:
  97  00DA              #line 97 "E:\work\Quby\CODE\holtek dev\test5342\modbus.c"
  97  00DA  075B        	mov a,[91]
  97  00DB  0080     E  	mov ra,a
  97  00DC  0F04        	mov a,4
  97  00DD  0680     E  	andm a,ra
  97  00DE  1080     E  	sz ra
  97  00DF  2800     R  	jmp _L15
  97  00E0  0700     E  	mov a,r2
  97  00E1  008A        	mov status,a
  97  00E2  0700     E  	mov a,r3
  97  00E3  0083        	mov mp,a
  97  00E4  0700     E  	mov a,r4
  97  00E5  0084        	mov sbp,a
  97  00E6  0700     E  	mov a,r5
  97  00E7  0087        	mov tblp,a
  97  00E8  0700     E  	mov a,r6
  97  00E9  0089        	mov tbhp,a
  97  00EA  1D05        	tabrdc acc
  97  00EB  0700     E  	mov a,r1
  97  00EC  0004        	reti
  97  00ED              _UartCallBack endp
  97  00ED              
"File: modbus.c      Assembler  Version HGASM0202      Page 9

  97  00ED              #line 97 "E:\work\Quby\CODE\holtek dev\test5342\modbus.c"
  97  00ED              #pragma debug scope 1 1
  97  00ED              #pragma debug struct_end
  97  00ED              #pragma debug struct_end
  97  00ED              #pragma debug union_end
  97  00ED              #pragma debug union_end
  97  00ED              #pragma debug variable 44 1 ___pa "__pa" 1
  97  00ED              #pragma debug struct_end
  97  00ED              #pragma debug struct_end
  97  00ED              #pragma debug union_end
  97  00ED              #pragma debug union_end
  97  00ED              #pragma debug variable 46 1 ___intc0 "__intc0" 1
  97  00ED              #pragma debug struct_end
  97  00ED              #pragma debug struct_end
  97  00ED              #pragma debug union_end
  97  00ED              #pragma debug union_end
  97  00ED              #pragma debug variable 48 1 ___intc1 "__intc1" 1
  97  00ED              #pragma debug struct_end
  97  00ED              #pragma debug struct_end
  97  00ED              #pragma debug union_end
  97  00ED              #pragma debug union_end
  97  00ED              #pragma debug variable 50 1 ___simc0 "__simc0" 1
  97  00ED              #pragma debug struct_end
  97  00ED              #pragma debug struct_end
  97  00ED              #pragma debug union_end
  97  00ED              #pragma debug union_end
  97  00ED              #pragma debug variable 52 1 ___uucr1 "__uucr1" 1
  97  00ED              #pragma debug struct_end
  97  00ED              #pragma debug struct_end
  97  00ED              #pragma debug union_end
  97  00ED              #pragma debug union_end
  97  00ED              #pragma debug variable 54 1 ___uucr2 "__uucr2" 1
  97  00ED              #pragma debug struct_end
  97  00ED              #pragma debug struct_end
  97  00ED              #pragma debug union_end
  97  00ED              #pragma debug union_end
  97  00ED              #pragma debug variable 56 1 ___utxr_rxr "__utxr_rxr" 1
  97  00ED              #pragma debug struct_end
  97  00ED              #pragma debug struct_end
  97  00ED              #pragma debug union_end
  97  00ED              #pragma debug union_end
  97  00ED              #pragma debug variable 58 1 ___ubrg "__ubrg" 1
  97  00ED              #pragma debug struct_end
  97  00ED              #pragma debug struct_end
  97  00ED              #pragma debug union_end
  97  00ED              #pragma debug union_end
  97  00ED              #pragma debug variable 60 1 ___uusr "__uusr" 1
  97  00ED              
  97  00ED              ; output external variables
  97  00ED              extern _sensor:byte
  97  00ED              extern r1:byte
  97  00ED              extern r2:byte
  97  00ED              extern r3:byte
  97  00ED              extern r4:byte
  97  00ED              extern r5:byte
  97  00ED              extern r6:byte
  97  00ED              
  97  00ED              ; 
  97  00ED              ; Generated by holtek-gcc v3.19, Thu Nov 03 13:21:59 2022
  97  00ED              ; Rebuild 718
"File: modbus.c      Assembler  Version HGASM0202      Page 10

  97  00ED              ; end of file


        0 Errors, 0