"File: sensor.c      Assembler  Version HGASM0202      Page 1


   1  0000              ; Generated by holtek-gcc v3.19, Thu Nov 03 13:21:59 2022
   2  0000              ; 
   3  0000              ; Configuration:
   4  0000              ;       with long instruction
   5  0000              ;       Single ROM, Multi-RAM
   6  0000              ;       bits_per_rom_unit:16
   7  0000              ;       with mp1
   8  0000              ;       with tbhp, address(0x9)
   9  0000              ;          Use tabrd-const
  10  0000              ;       
  11  0000              ; SFR address of long-instruction arch:
  12  0000              ;    mp0 = -1,1,0
  13  0000              ;    mp1 = 4,3,2
  14  0000              ;    mp2 = 14,13,12
  15  0000              ;    tbp = 9,7,8
  16  0000              ;    acc = 5
  17  0000              ;    pcl = 6
  18  0000              ;    status = 10
  19  0000              ;    bp = 11
  20  0000              ;    intc = 32
  21  0000              ;       
  22  0000              ;       
  23  0000              ; use 'tabrdc' instead of 'tabrd'
  24  0000              ;       
  25  0000              
  26  0000              #pragma translator "holtek-gcc 4.6.4" "3.19" "build 20130711"
  27  0000              ; Rebuild 718
  28  0000              
  29  0000              ir equ [2]
  30  0000              mp equ [3]
  31  0000              sbp equ [4]
  32  0000              acc equ [5]
  33  0000              bp equ [11]
  34  0000              tblp equ [7]
  35  0000              tbhp equ [9]
  36  0000              status equ [10]
  37  0000              c equ [10].0
  38  0000              ac equ [10].1
  39  0000              z equ [10].2
  40  0000              ov equ [10].3
  41  0000              cz equ [10].6
  42  0000              sc equ [10].7
  43  0000              intc equ [32]
  44  0000              
  45  0000              extern ra:byte
  46  0000              extern rb:byte
  47  0000              extern rc:byte
  48  0000              extern rd:byte
  49  0000              extern re:byte
  50  0000              extern rf:byte
  51  0000              extern rg:byte
  52  0000              extern rh:byte
  53  0000              extern _Crom2Prom:near
  54  0000              extern _Crom2PromNext:near
  55  0000              
  56  0000              RAMBANK 0 @BITDATASEC, @BITDATASEC1
  57  0000              @HCCINIT	.section 'data'
  58  0000              @HCCINIT0	.section 'data'
  59  0000              @BITDATASEC	 .section 'data'
"File: sensor.ASM    Assembler  Version HGASM0202      Page 2

  60  0000              @BITDATASEC1	 .section 'data'
  61  0000              
  62  0000              #pragma debug scope 1 1
  63  0000              	extern __DELAY3:near
  64  0000              	extern __DELAYX3:near
  65  0000              	extern __DELAYX6:near
  66  0000              	extern __DELAYY5:near
  67  0000              	extern __DELAYY3:near
  68  0000              	extern _builtin_holtek_delay_2:byte

   6  0000              #line 6 "E:\work\Quby\CODE\holtek dev\test5342\sensor.c"
   6  0000              public _sensor
   6  0000              @HCCINIT0_sensor .section 'data'
   6  0000  0018[       _sensor	db 24 dup(0)
            00
            ]
   6  0018              #pragma debug struct_end
   6  0018              #pragma debug struct_end
   6  0018              #pragma debug variable 42 1 _sensor "sensor"
   6  0018              
   6  0000              @HCCINIT .section 'data'
   8  0000              #line 8 "E:\work\Quby\CODE\holtek dev\test5342\sensor.c"
   8  0000              public _sensor_weight_window
   8  0000              @HCCINIT0_sensor_weight_window .section 'data'
   8  0000  0018[       _sensor_weight_window	db 24 dup(0)
            00
            ]
   8  0018              #pragma debug array 43 14 6 1
   8  0018              #pragma debug array 43 14 6 1
   8  0018              #pragma debug variable 43 1 _sensor_weight_window "sensor_weight_window"
   8  0018              
   8  0000              @HCCINIT .section 'data'
   8  0000              public _state
   8  0000              @HCCINIT	.section 'data'
   9  0000              #line 9 "E:\work\Quby\CODE\holtek dev\test5342\sensor.c"
   9  0000              @HCCINIT_state .section 'data'
   9  0000              _state label byte
   9  0000              #pragma debug variable 8 1 _state "state"
   9  0000              	db 0
   9  0000              @ROMDATA_BASE .section inpage 'code'
   9  0000              	db 0
   9  0001              @HCCINIT_state .section 'data'
   9  0001              ___pwrc equ [104]
   9  0001              ___pgac0 equ [105]
   9  0001              ___pgac1 equ [106]
   9  0001              ___adcr0 equ [102]
   9  0001              ___adcs equ [101]
   9  0001              ___adcr1 equ [103]
   9  0001              ___pgacs equ [107]
   9  0001              public _ADC_Init
   9  0001              #pragma debug scope 2 1
  76  0001              #line 76 "E:\work\Quby\CODE\holtek dev\test5342\sensor.c"
  76  0000              _ADC_Init .section 'code'
  76  0000              _ADC_Init proc
  78  0000              #line 78 "E:\work\Quby\CODE\holtek dev\test5342\sensor.c"
  78  0000  0F83        	mov a,131
  78  0001  00E8        	mov [104],a
  80  0002              #line 80 "E:\work\Quby\CODE\holtek dev\test5342\sensor.c"
  80  0002  3769        	clr [105].6
  81  0003              #line 81 "E:\work\Quby\CODE\holtek dev\test5342\sensor.c"
"File: sensor.c      Assembler  Version HGASM0202      Page 3

  81  0003  36E9        	clr [105].5
  84  0004              #line 84 "E:\work\Quby\CODE\holtek dev\test5342\sensor.c"
  84  0004  3669        	clr [105].4
  85  0005              #line 85 "E:\work\Quby\CODE\holtek dev\test5342\sensor.c"
  85  0005  35E9        	clr [105].3
  88  0006              #line 88 "E:\work\Quby\CODE\holtek dev\test5342\sensor.c"
  88  0006  3569        	clr [105].2
  89  0007              #line 89 "E:\work\Quby\CODE\holtek dev\test5342\sensor.c"
  89  0007  30E9        	set [105].1
  90  0008              #line 90 "E:\work\Quby\CODE\holtek dev\test5342\sensor.c"
  90  0008  3069        	set [105].0
  92  0009              #line 92 "E:\work\Quby\CODE\holtek dev\test5342\sensor.c"
  92  0009  1F6A        	clr [106]
  94  000A              #line 94 "E:\work\Quby\CODE\holtek dev\test5342\sensor.c"
  94  000A  3466        	clr [102].0
  96  000B              #line 96 "E:\work\Quby\CODE\holtek dev\test5342\sensor.c"
  96  000B  0F02        	mov a,2
  96  000C  00E5        	mov [101],a
  99  000D              #line 99 "E:\work\Quby\CODE\holtek dev\test5342\sensor.c"
  99  000D  3667        	clr [103].4
 100  000E              #line 100 "E:\work\Quby\CODE\holtek dev\test5342\sensor.c"
 100  000E  35E7        	clr [103].3
 102  000F              #line 102 "E:\work\Quby\CODE\holtek dev\test5342\sensor.c"
 102  000F  3666        	clr [102].4
 103  0010              #line 103 "E:\work\Quby\CODE\holtek dev\test5342\sensor.c"
 103  0010  35E6        	clr [102].3
 104  0011              #line 104 "E:\work\Quby\CODE\holtek dev\test5342\sensor.c"
 104  0011  3566        	clr [102].2
 106  0012              #line 106 "E:\work\Quby\CODE\holtek dev\test5342\sensor.c"
 106  0012  37E7        	clr [103].7
 107  0013              #line 107 "E:\work\Quby\CODE\holtek dev\test5342\sensor.c"
 107  0013  3367        	set [103].6
 108  0014              #line 108 "E:\work\Quby\CODE\holtek dev\test5342\sensor.c"
 108  0014  36E7        	clr [103].5
 110  0015              #line 110 "E:\work\Quby\CODE\holtek dev\test5342\sensor.c"
 110  0015  0F10        	mov a,16
 110  0016  00EB        	mov [107],a
 112  0017              #line 112 "E:\work\Quby\CODE\holtek dev\test5342\sensor.c"
 112  0017  36E6        	clr [102].5
 113  0018              #line 113 "E:\work\Quby\CODE\holtek dev\test5342\sensor.c"
 113  0018  3766        	clr [102].6
 115  0019              #line 115 "E:\work\Quby\CODE\holtek dev\test5342\sensor.c"
 115  0019  33E6        	set [102].7
 118  001A              #line 118 "E:\work\Quby\CODE\holtek dev\test5342\sensor.c"
 118  001A  37E6        	clr [102].7
 120  001B              #line 120 "E:\work\Quby\CODE\holtek dev\test5342\sensor.c"
 120  001B  34E7        	clr [103].1
 120  001C  0003        	ret
 120  001D              _ADC_Init endp
 120  001D              #line 120 "E:\work\Quby\CODE\holtek dev\test5342\sensor.c"
 120  001D              #pragma debug scope 1 1
 120  001D              ___intc0 equ [32]
 120  001D              ___adrl equ [108]
 120  001D              ___adrh equ [110]
 120  001D              ___adrm equ [109]
 120  001D              public _AdcDataCollect
 120  001D              #pragma debug scope 3 1
 129  001D              #line 129 "E:\work\Quby\CODE\holtek dev\test5342\sensor.c"
 129  0000              @AdcDataCollect_code .section at 12 'code'
 129  0000              ifdef INTERRUPT_DELAY
"File: sensor.c      Assembler  Version HGASM0202      Page 4

 129  0000              	nop
 129  0000              endif
 129  0000  0080     E  	mov r1,a
 129  0001  070A        	mov a,status
 129  0002              ifndef INTERRUPT_DELAY
 129  0002  0080     E  	mov r2,a
 129  0003              endif
 129  0003  2800     R  	jmp _AdcDataCollect
 129  0004              #pragma debug scope 1 1
 129  0004              @dummy12 endp
 129  0004              #pragma debug scope 4 1
 129  0000              _AdcDataCollect .section 'code'
 129  0000              _AdcDataCollect proc
 129  0000  0008[       local _AdcDataCollect_2 db 8 dup(?)
            00
            ]
 129  0000              ifdef INTERRUPT_DELAY
 129  0000              	mov r2,a
 129  0000              endif
 130  0000              #line 130 "E:\work\Quby\CODE\holtek dev\test5342\sensor.c"
 130  0000  3720        	clr [32].6
 131  0001              #line 131 "E:\work\Quby\CODE\holtek dev\test5342\sensor.c"
 131  0001  3020        	set [32].0
 133  0002              #line 133 "E:\work\Quby\CODE\holtek dev\test5342\sensor.c"
 133  0002  0767        	mov a,[103]
 133  0003  0080     E  	mov ra,a
 133  0004  0F02        	mov a,2
 133  0005  0680     E  	andm a,ra
 133  0006  1E00     E  	snz ra
 133  0007  2800     R  	jmp _L3
 135  0008              #line 135 "E:\work\Quby\CODE\holtek dev\test5342\sensor.c"
 135  0008  3167        	set [103].2
 137  0009              #line 137 "E:\work\Quby\CODE\holtek dev\test5342\sensor.c"
 137  0009  34E7        	clr [103].1
 138  000A              #line 138 "E:\work\Quby\CODE\holtek dev\test5342\sensor.c"
 138  000A  076C        	mov a,[108]
 138  000B  0080     E  	mov ra,a
 138  000C  1F00     E  	clr rb
 138  000D  1F00     E  	clr rc
 138  000E  1F00     E  	clr rd
 138  000F  0700     E  	mov a,rc
 138  0010  0080     E  	mov rd,a
 138  0011  0700     E  	mov a,rb
 138  0012  0080     E  	mov rc,a
 138  0013  0700     E  	mov a,ra
 138  0014  0080     E  	mov rb,a
 138  0015  1F00     E  	clr ra
 138  0016  0700     E  	mov a,ra
 138  0017  0080     R  	mov _sensor[4],a
 138  0018  0700     E  	mov a,rb
 138  0019  0080     R  	mov _sensor[5],a
 138  001A  0700     E  	mov a,rc
 138  001B  0080     R  	mov _sensor[6],a
 138  001C  0700     E  	mov a,rd
 138  001D  0080     R  	mov _sensor[7],a
 139  001E              #line 139 "E:\work\Quby\CODE\holtek dev\test5342\sensor.c"
 139  001E  0700     R  	mov a,_sensor[4]
 139  001F  0080     E  	mov ra,a
 139  0020  0700     R  	mov a,_sensor[5]
 139  0021  0080     E  	mov rb,a
"File: sensor.c      Assembler  Version HGASM0202      Page 5

 139  0022  0700     R  	mov a,_sensor[6]
 139  0023  0080     E  	mov rc,a
 139  0024  0700     R  	mov a,_sensor[7]
 139  0025  0080     E  	mov rd,a
 139  0026  0700     E  	mov a,ra
 139  0027  0080     E  	mov re,a
 139  0028  0700     E  	mov a,rb
 139  0029  0080     E  	mov rf,a
 139  002A  0700     E  	mov a,rc
 139  002B  0080     E  	mov rg,a
 139  002C  0700     E  	mov a,rd
 139  002D  0080     E  	mov rh,a
 139  002E  076E        	mov a,[110]
 139  002F  0080     E  	mov ra,a
 139  0030  0700     E  	mov a,ra
 139  0031  0080     R  	mov _AdcDataCollect_2[4],a
 139  0032  1F00     R  	clr _AdcDataCollect_2[5]
 139  0033  1F00     R  	clr _AdcDataCollect_2[6]
 139  0034  1F00     R  	clr _AdcDataCollect_2[7]
 139  0035  0700     R  	mov a,_AdcDataCollect_2[4]
 139  0036  0080     E  	mov ra,a
 139  0037  0700     R  	mov a,_AdcDataCollect_2[5]
 139  0038  0080     E  	mov rb,a
 139  0039  0700     R  	mov a,_AdcDataCollect_2[6]
 139  003A  0080     E  	mov rc,a
 139  003B  0700     R  	mov a,_AdcDataCollect_2[7]
 139  003C  0080     E  	mov rd,a
 139  003D  0700     E  	mov a,ra
 139  003E  0080     E  	mov rd,a
 139  003F  1F00     E  	clr rc
 139  0040  1F00     E  	clr rb
 139  0041  1F00     E  	clr ra
 139  0042  0700     E  	mov a,ra
 139  0043  0080     R  	mov _AdcDataCollect_2[0],a
 139  0044  0700     E  	mov a,rb
 139  0045  0080     R  	mov _AdcDataCollect_2[1],a
 139  0046  0700     E  	mov a,rc
 139  0047  0080     R  	mov _AdcDataCollect_2[2],a
 139  0048  0700     E  	mov a,rd
 139  0049  0080     R  	mov _AdcDataCollect_2[3],a
 139  004A  076D        	mov a,[109]
 139  004B  0080     E  	mov ra,a
 139  004C  1F00     E  	clr rb
 139  004D  1F00     E  	clr rc
 139  004E  1F00     E  	clr rd
 139  004F  0700     E  	mov a,rb
 139  0050  0080     E  	mov rd,a
 139  0051  0700     E  	mov a,ra
 139  0052  0080     E  	mov rc,a
 139  0053  1F00     E  	clr rb
 139  0054  1F00     E  	clr ra
 139  0055  0700     R  	mov a,_AdcDataCollect_2[3]
 139  0056  0580     E  	orm a,rd
 139  0057  0700     R  	mov a,_AdcDataCollect_2[2]
 139  0058  0580     E  	orm a,rc
 139  0059  0700     R  	mov a,_AdcDataCollect_2[1]
 139  005A  0580     E  	orm a,rb
 139  005B  0700     R  	mov a,_AdcDataCollect_2[0]
 139  005C  0580     E  	orm a,ra
 139  005D  0700     E  	mov a,rh
"File: sensor.c      Assembler  Version HGASM0202      Page 6

 139  005E  0580     E  	orm a,rd
 139  005F  0700     E  	mov a,rg
 139  0060  0580     E  	orm a,rc
 139  0061  0700     E  	mov a,rf
 139  0062  0580     E  	orm a,rb
 139  0063  0700     E  	mov a,re
 139  0064  0580     E  	orm a,ra
 139  0065  0700     E  	mov a,ra
 139  0066  0080     R  	mov _sensor[4],a
 139  0067  0700     E  	mov a,rb
 139  0068  0080     R  	mov _sensor[5],a
 139  0069  0700     E  	mov a,rc
 139  006A  0080     R  	mov _sensor[6],a
 139  006B  0700     E  	mov a,rd
 139  006C  0080     R  	mov _sensor[7],a
 140  006D              #line 140 "E:\work\Quby\CODE\holtek dev\test5342\sensor.c"
 140  006D  0700     R  	mov a,_sensor[4]
 140  006E  0080     E  	mov ra,a
 140  006F  0700     R  	mov a,_sensor[5]
 140  0070  0080     E  	mov rb,a
 140  0071  0700     R  	mov a,_sensor[6]
 140  0072  0080     E  	mov rc,a
 140  0073  0700     R  	mov a,_sensor[7]
 140  0074  0080     E  	mov rd,a
 140  0075  0700     E  	mov a,rb
 140  0076  0080     E  	mov ra,a
 140  0077  0700     E  	mov a,rc
 140  0078  0080     E  	mov rb,a
 140  0079  0700     E  	mov a,rd
 140  007A  0080     E  	mov rc,a
 140  007B  1F00     E  	clr rd
 140  007C  3C00     E  	sz rc.7
 140  007D  1F80     E  	set rd
 140  007E  0700     E  	mov a,ra
 140  007F  0080     R  	mov _sensor[4],a
 140  0080  0700     E  	mov a,rb
 140  0081  0080     R  	mov _sensor[5],a
 140  0082  0700     E  	mov a,rc
 140  0083  0080     R  	mov _sensor[6],a
 140  0084  0700     E  	mov a,rd
 140  0085  0080     R  	mov _sensor[7],a
 142  0086              #line 142 "E:\work\Quby\CODE\holtek dev\test5342\sensor.c"
 142  0086  3567        	clr [103].2
 144  0087              #line 144 "E:\work\Quby\CODE\holtek dev\test5342\sensor.c"
 144  0087  0700     R  	mov a,_state[0]
 144  0088  0080     E  	mov ra,a
 144  0089  1F00     E  	clr rb
 144  008A  0F0F        	mov a,15  
 144  008B  0680     E  	andm a,ra  
 144  008C  0F00        	mov a,0  
 144  008D  0680     E  	andm a,rb
 144  008E  0700     E  	mov a,ra
 144  008F  0500     E  	or a,rb
 144  0090  3D0A        	sz z
 144  0091  2800     R  	jmp _L4
 146  0092              #line 146 "E:\work\Quby\CODE\holtek dev\test5342\sensor.c"
 146  0092  0700     R  	mov a,_state[0]
 146  0093  0080     E  	mov ra,a
 146  0094  3800     E  	snz ra.7
 146  0095  2800     R  	jmp _L5
"File: sensor.c      Assembler  Version HGASM0202      Page 7

 148  0096              #line 148 "E:\work\Quby\CODE\holtek dev\test5342\sensor.c"
 148  0096  0700     R  	mov a,_sensor[4]
 148  0097  0080     E  	mov re,a
 148  0098  0700     R  	mov a,_sensor[5]
 148  0099  0080     E  	mov rf,a
 148  009A  0700     R  	mov a,_sensor[6]
 148  009B  0080     E  	mov rg,a
 148  009C  0700     R  	mov a,_sensor[7]
 148  009D  0080     E  	mov rh,a
 148  009E  0700     R  	mov a,_sensor[8]
 148  009F  0080     E  	mov ra,a
 148  00A0  0700     R  	mov a,_sensor[9]
 148  00A1  0080     E  	mov rb,a
 148  00A2  0700     R  	mov a,_sensor[10]
 148  00A3  0080     E  	mov rc,a
 148  00A4  0700     R  	mov a,_sensor[11]
 148  00A5  0080     E  	mov rd,a
 148  00A6  0700     E  	mov a,re
 148  00A7  0280     E  	subm a,ra
 148  00A8  0700     E  	mov a,rf
 148  00A9  1280     E  	sbcm a,rb
 148  00AA  0700     E  	mov a,rg
 148  00AB  1280     E  	sbcm a,rc
 148  00AC  0700     E  	mov a,rh
 148  00AD  1280     E  	sbcm a,rd
 148  00AE  0700     E  	mov a,ra
 148  00AF  0080     R  	mov _sensor[8],a
 148  00B0  0700     E  	mov a,rb
 148  00B1  0080     R  	mov _sensor[9],a
 148  00B2  0700     E  	mov a,rc
 148  00B3  0080     R  	mov _sensor[10],a
 148  00B4  0700     E  	mov a,rd
 148  00B5  0080     R  	mov _sensor[11],a
 148  00B6  2800     R  	jmp _L7
 148  00B7              _L5:
 153  00B7              #line 153 "E:\work\Quby\CODE\holtek dev\test5342\sensor.c"
 153  00B7  0700     R  	mov a,_sensor[8]
 153  00B8  0080     E  	mov re,a
 153  00B9  0700     R  	mov a,_sensor[9]
 153  00BA  0080     E  	mov rf,a
 153  00BB  0700     R  	mov a,_sensor[10]
 153  00BC  0080     E  	mov rg,a
 153  00BD  0700     R  	mov a,_sensor[11]
 153  00BE  0080     E  	mov rh,a
 153  00BF  0700     R  	mov a,_sensor[4]
 153  00C0  0080     E  	mov ra,a
 153  00C1  0700     R  	mov a,_sensor[5]
 153  00C2  0080     E  	mov rb,a
 153  00C3  0700     R  	mov a,_sensor[6]
 153  00C4  0080     E  	mov rc,a
 153  00C5  0700     R  	mov a,_sensor[7]
 153  00C6  0080     E  	mov rd,a
 153  00C7  0700     E  	mov a,re
 153  00C8  0280     E  	subm a,ra
 153  00C9  0700     E  	mov a,rf
 153  00CA  1280     E  	sbcm a,rb
 153  00CB  0700     E  	mov a,rg
 153  00CC  1280     E  	sbcm a,rc
 153  00CD  0700     E  	mov a,rh
 153  00CE  1280     E  	sbcm a,rd
"File: sensor.c      Assembler  Version HGASM0202      Page 8

 153  00CF  0700     E  	mov a,ra
 153  00D0  0080     R  	mov _sensor[8],a
 153  00D1  0700     E  	mov a,rb
 153  00D2  0080     R  	mov _sensor[9],a
 153  00D3  0700     E  	mov a,rc
 153  00D4  0080     R  	mov _sensor[10],a
 153  00D5  0700     E  	mov a,rd
 153  00D6  0080     R  	mov _sensor[11],a
 153  00D7  2800     R  	jmp _L7
 153  00D8              _L4:
 159  00D8              #line 159 "E:\work\Quby\CODE\holtek dev\test5342\sensor.c"
 159  00D8  0700     R  	mov a,_state[0]
 159  00D9  0080     E  	mov ra,a
 159  00DA  3800     E  	snz ra.7
 159  00DB  2800     R  	jmp _L8
 161  00DC              #line 161 "E:\work\Quby\CODE\holtek dev\test5342\sensor.c"
 161  00DC  0700     R  	mov a,_sensor[4]
 161  00DD  0080     E  	mov re,a
 161  00DE  0700     R  	mov a,_sensor[5]
 161  00DF  0080     E  	mov rf,a
 161  00E0  0700     R  	mov a,_sensor[6]
 161  00E1  0080     E  	mov rg,a
 161  00E2  0700     R  	mov a,_sensor[7]
 161  00E3  0080     E  	mov rh,a
 161  00E4  0700     R  	mov a,_sensor[8]
 161  00E5  0080     E  	mov ra,a
 161  00E6  0700     R  	mov a,_sensor[9]
 161  00E7  0080     E  	mov rb,a
 161  00E8  0700     R  	mov a,_sensor[10]
 161  00E9  0080     E  	mov rc,a
 161  00EA  0700     R  	mov a,_sensor[11]
 161  00EB  0080     E  	mov rd,a
 161  00EC  0700     E  	mov a,re
 161  00ED  0280     E  	subm a,ra
 161  00EE  0700     E  	mov a,rf
 161  00EF  1280     E  	sbcm a,rb
 161  00F0  0700     E  	mov a,rg
 161  00F1  1280     E  	sbcm a,rc
 161  00F2  0700     E  	mov a,rh
 161  00F3  1280     E  	sbcm a,rd
 161  00F4  0700     E  	mov a,ra
 161  00F5  0080     R  	mov _sensor[8],a
 161  00F6  0700     E  	mov a,rb
 161  00F7  0080     R  	mov _sensor[9],a
 161  00F8  0700     E  	mov a,rc
 161  00F9  0080     R  	mov _sensor[10],a
 161  00FA  0700     E  	mov a,rd
 161  00FB  0080     R  	mov _sensor[11],a
 161  00FC  2800     R  	jmp _L7
 161  00FD              _L8:
 164  00FD              #line 164 "E:\work\Quby\CODE\holtek dev\test5342\sensor.c"
 164  00FD  0700     R  	mov a,_sensor[8]
 164  00FE  0080     E  	mov re,a
 164  00FF  0700     R  	mov a,_sensor[9]
 164  0100  0080     E  	mov rf,a
 164  0101  0700     R  	mov a,_sensor[10]
 164  0102  0080     E  	mov rg,a
 164  0103  0700     R  	mov a,_sensor[11]
 164  0104  0080     E  	mov rh,a
 164  0105  0700     R  	mov a,_sensor[4]
"File: sensor.c      Assembler  Version HGASM0202      Page 9

 164  0106  0080     E  	mov ra,a
 164  0107  0700     R  	mov a,_sensor[5]
 164  0108  0080     E  	mov rb,a
 164  0109  0700     R  	mov a,_sensor[6]
 164  010A  0080     E  	mov rc,a
 164  010B  0700     R  	mov a,_sensor[7]
 164  010C  0080     E  	mov rd,a
 164  010D  0700     E  	mov a,re
 164  010E  0280     E  	subm a,ra
 164  010F  0700     E  	mov a,rf
 164  0110  1280     E  	sbcm a,rb
 164  0111  0700     E  	mov a,rg
 164  0112  1280     E  	sbcm a,rc
 164  0113  0700     E  	mov a,rh
 164  0114  1280     E  	sbcm a,rd
 164  0115  0700     E  	mov a,ra
 164  0116  0080     R  	mov _sensor[8],a
 164  0117  0700     E  	mov a,rb
 164  0118  0080     R  	mov _sensor[9],a
 164  0119  0700     E  	mov a,rc
 164  011A  0080     R  	mov _sensor[10],a
 164  011B  0700     E  	mov a,rd
 164  011C  0080     R  	mov _sensor[11],a
 164  011D              _L7:
 169  011D              #line 169 "E:\work\Quby\CODE\holtek dev\test5342\sensor.c"
 169  011D  0700     R  	mov a,_state[0]
 169  011E  0080     E  	mov ra,a
 169  011F  3000     E  	set ra.6
 169  0120  0700     E  	mov a,ra
 169  0121  0080     R  	mov _state[0],a
 171  0122              #line 171 "E:\work\Quby\CODE\holtek dev\test5342\sensor.c"
 171  0122  34E7        	clr [103].1
 171  0123              _L3:
 175  0123              #line 175 "E:\work\Quby\CODE\holtek dev\test5342\sensor.c"
 175  0123  0700     R  	mov a,_state[0]
 175  0124  0080     E  	mov ra,a
 175  0125  1F00     E  	clr rb
 175  0126  0F0F        	mov a,15  
 175  0127  0680     E  	andm a,ra  
 175  0128  0F00        	mov a,0  
 175  0129  0680     E  	andm a,rb
 175  012A  0700     E  	mov a,ra
 175  012B  0500     E  	or a,rb
 175  012C  390A        	snz z
 175  012D  2800     R  	jmp _L9
 177  012E              #line 177 "E:\work\Quby\CODE\holtek dev\test5342\sensor.c"
 177  012E  0700     R  	mov a,_state[0]
 177  012F  0080     E  	mov ra,a
 177  0130  0F80        	mov a,128
 177  0131  0480     E  	xorm a,ra
 177  0132  0700     E  	mov a,ra
 177  0133  0080     R  	mov _state[0],a
 177  0134              _L9:
 179  0134              #line 179 "E:\work\Quby\CODE\holtek dev\test5342\sensor.c"
 179  0134  0700     R  	mov a,_state[0]
 179  0135  0080     E  	mov ra,a
 179  0136  1480     E  	inc ra
 179  0137  0700     E  	mov a,ra
 179  0138  0080     R  	mov _state[0],a
 180  0139              #line 180 "E:\work\Quby\CODE\holtek dev\test5342\sensor.c"
"File: sensor.c      Assembler  Version HGASM0202      Page 10

 180  0139  0700     R  	mov a,_state[0]
 180  013A  0080     E  	mov ra,a
 180  013B  1F00     E  	clr rb
 180  013C  0F0F        	mov a,15  
 180  013D  0680     E  	andm a,ra  
 180  013E  0F00        	mov a,0  
 180  013F  0680     E  	andm a,rb
 180  0140  0700     E  	mov a,ra
 180  0141  0C02        	xor a,2
 180  0142  0500     E  	or a,rb
 180  0143  390A        	snz z
 180  0144  2800     R  	jmp _L2
 182  0145              #line 182 "E:\work\Quby\CODE\holtek dev\test5342\sensor.c"
 182  0145  076A        	mov a,[106]
 182  0146  0080     E  	mov ra,a
 182  0147  1100     E  	swapa ra
 182  0148  0E0F        	and a,0fh
 182  0149  0080     E  	mov ra,a
 182  014A  0F01        	mov a,1
 182  014B  0680     E  	andm a,ra
 182  014C  0100     E  	cpla ra
 182  014D  0080     E  	mov ra,a
 182  014E  0F01        	mov a,1
 182  014F  0680     E  	andm a,ra
 182  0150  0F01        	mov a,1
 182  0151  0680     E  	andm a,ra
 182  0152  1100     E  	swapa ra
 182  0153  0EF0        	and a,0f0h 
 182  0154  0080     E  	mov ra,a
 182  0155  366A        	clr [106].4
 182  0156  0700     E  	mov a,ra
 182  0157  05EA        	orm a,[106]
 183  0158              #line 183 "E:\work\Quby\CODE\holtek dev\test5342\sensor.c"
 183  0158  076A        	mov a,[106]
 183  0159  0080     E  	mov ra,a
 183  015A  1100     E  	swapa ra
 183  015B  1985        	rr acc
 183  015C  0E07        	and a,07h
 183  015D  0080     E  	mov ra,a
 183  015E  0F01        	mov a,1
 183  015F  0680     E  	andm a,ra
 183  0160  0100     E  	cpla ra
 183  0161  0080     E  	mov ra,a
 183  0162  0F01        	mov a,1
 183  0163  0680     E  	andm a,ra
 183  0164  0F01        	mov a,1
 183  0165  0680     E  	andm a,ra
 183  0166  1100     E  	swapa ra
 183  0167  1885        	rl acc
 183  0168  0EE0        	and a,0e0h
 183  0169  0080     E  	mov ra,a
 183  016A  36EA        	clr [106].5
 183  016B  0700     E  	mov a,ra
 183  016C  05EA        	orm a,[106]
 184  016D              #line 184 "E:\work\Quby\CODE\holtek dev\test5342\sensor.c"
 184  016D  0700     R  	mov a,_state[0]
 184  016E  0080     E  	mov ra,a
 184  016F  0FF0        	mov a,240
 184  0170  0680     E  	andm a,ra
 184  0171  0700     E  	mov a,ra
"File: sensor.c      Assembler  Version HGASM0202      Page 11

 184  0172  0080     R  	mov _state[0],a
 184  0173              _L2:
 184  0173  0700     E  	mov a,r2
 184  0174  008A        	mov status,a
 184  0175  0700     E  	mov a,r1
 184  0176  0004        	reti
 184  0177              _AdcDataCollect endp
 184  0177              
 184  0177              #line 184 "E:\work\Quby\CODE\holtek dev\test5342\sensor.c"
 184  0177              #pragma debug scope 1 1
 184  0177              public _Sensor_Weight_Filter
 184  0177              #pragma debug scope 5 1
 194  0177              #line 194 "E:\work\Quby\CODE\holtek dev\test5342\sensor.c"
 194  0000              _Sensor_Weight_Filter .section 'code'
 194  0000              _Sensor_Weight_Filter proc
 194  0000  00              local _Sensor_Weight_Filter_2 db 1 dup(?)	; 0,1
 194  0001              #pragma debug variable 8 5 _Sensor_Weight_Filter_2+0 "i"
 195  0001              #line 195 "E:\work\Quby\CODE\holtek dev\test5342\sensor.c"
 195  0000  1F00     R  	clr _sensor[12]
 195  0001  1F00     R  	clr _sensor[13]
 195  0002  1F00     R  	clr _sensor[14]
 195  0003  1F00     R  	clr _sensor[15]
 196  0004              #line 196 "E:\work\Quby\CODE\holtek dev\test5342\sensor.c"
 196  0004  0700     R  	mov a,_sensor_weight_window[0]
 196  0005  0080     E  	mov ra,a
 196  0006  0700     R  	mov a,_sensor_weight_window[1]
 196  0007  0080     E  	mov rb,a
 196  0008  0700     R  	mov a,_sensor_weight_window[2]
 196  0009  0080     E  	mov rc,a
 196  000A  0700     R  	mov a,_sensor_weight_window[3]
 196  000B  0080     E  	mov rd,a
 196  000C  0700     E  	mov a,ra
 196  000D  0080     R  	mov _sensor[16],a
 196  000E  0700     E  	mov a,rb
 196  000F  0080     R  	mov _sensor[17],a
 196  0010  0700     E  	mov a,rc
 196  0011  0080     R  	mov _sensor[18],a
 196  0012  0700     E  	mov a,rd
 196  0013  0080     R  	mov _sensor[19],a
 197  0014              #line 197 "E:\work\Quby\CODE\holtek dev\test5342\sensor.c"
 197  0014  0700     R  	mov a,_sensor_weight_window[0]
 197  0015  0080     E  	mov ra,a
 197  0016  0700     R  	mov a,_sensor_weight_window[1]
 197  0017  0080     E  	mov rb,a
 197  0018  0700     R  	mov a,_sensor_weight_window[2]
 197  0019  0080     E  	mov rc,a
 197  001A  0700     R  	mov a,_sensor_weight_window[3]
 197  001B  0080     E  	mov rd,a
 197  001C  0700     E  	mov a,ra
 197  001D  0080     R  	mov _sensor[20],a
 197  001E  0700     E  	mov a,rb
 197  001F  0080     R  	mov _sensor[21],a
 197  0020  0700     E  	mov a,rc
 197  0021  0080     R  	mov _sensor[22],a
 197  0022  0700     E  	mov a,rd
 197  0023  0080     R  	mov _sensor[23],a
 199  0024              #line 199 "E:\work\Quby\CODE\holtek dev\test5342\sensor.c"
 199  0024  1F00     R  	clr _Sensor_Weight_Filter_2[0]
 200  0025              #line 200 "E:\work\Quby\CODE\holtek dev\test5342\sensor.c"
 200  0025  2800     R  	jmp _L12
"File: sensor.c      Assembler  Version HGASM0202      Page 12

 200  0026              _L15:
 201  0026              #line 201 "E:\work\Quby\CODE\holtek dev\test5342\sensor.c"
 201  0026  0700     R  	mov a,_Sensor_Weight_Filter_2[0]
 201  0027  0080     E  	mov ra,a
 201  0028  1F00     E  	clr rb
 201  0029  340A        	clr c
 201  002A  1A80     E  	rlc ra
 201  002B  1A80     E  	rlc rb
 201  002C  340A        	clr c
 201  002D  1A80     E  	rlc ra
 201  002E  1A80     E  	rlc rb
 201  002F  0F00     R  	mov a,low offset _sensor_weight_window
 201  0030  0380     E  	addm a,ra
 201  0031  0F00     R  	mov a,high offset _sensor_weight_window
 201  0032  1380     E  	adcm a,rb
 201  0033  0700     E  	mov a,ra
 201  0034  0083        	mov mp,a
 201  0035  0700     E  	mov a,rb
 201  0036  0084        	mov sbp,a
 201  0037  2000     E  	call _Crom2Prom
 201  0038  0080     E  	mov re,a
 201  0039  2000     E  	call _Crom2PromNext
 201  003A  0080     E  	mov rf,a
 201  003B  2000     E  	call _Crom2PromNext
 201  003C  0080     E  	mov rg,a
 201  003D  2000     E  	call _Crom2PromNext
 201  003E  0080     E  	mov rh,a
 201  003F  0700     R  	mov a,_sensor[16]
 201  0040  0080     E  	mov ra,a
 201  0041  0700     R  	mov a,_sensor[17]
 201  0042  0080     E  	mov rb,a
 201  0043  0700     R  	mov a,_sensor[18]
 201  0044  0080     E  	mov rc,a
 201  0045  0700     R  	mov a,_sensor[19]
 201  0046  0080     E  	mov rd,a
 201  0047  0700     E  	mov a,ra
 201  0048  0200     E  	sub a,re
 201  0049  0700     E  	mov a,rb
 201  004A  1200     E  	sbc a,rf
 201  004B  0700     E  	mov a,rc
 201  004C  1200     E  	sbc a,rg
 201  004D  0700     E  	mov a,rd
 201  004E  1200     E  	sbc a,rh
 201  004F  3C0A        	sz c
 201  0050  2800     R  	jmp _L13
 201  0051  0700     R  	mov a,_Sensor_Weight_Filter_2[0]
 201  0052  0080     E  	mov ra,a
 201  0053  1F00     E  	clr rb
 201  0054  340A        	clr c
 201  0055  1A80     E  	rlc ra
 201  0056  1A80     E  	rlc rb
 201  0057  340A        	clr c
 201  0058  1A80     E  	rlc ra
 201  0059  1A80     E  	rlc rb
 201  005A  0F00     R  	mov a,low offset _sensor_weight_window
 201  005B  0380     E  	addm a,ra
 201  005C  0F00     R  	mov a,high offset _sensor_weight_window
 201  005D  1380     E  	adcm a,rb
 201  005E  0700     E  	mov a,ra
 201  005F  0083        	mov mp,a
"File: sensor.c      Assembler  Version HGASM0202      Page 13

 201  0060  0700     E  	mov a,rb
 201  0061  0084        	mov sbp,a
 201  0062  2000     E  	call _Crom2Prom
 201  0063  0080     E  	mov ra,a
 201  0064  2000     E  	call _Crom2PromNext
 201  0065  0080     E  	mov rb,a
 201  0066  2000     E  	call _Crom2PromNext
 201  0067  0080     E  	mov rc,a
 201  0068  2000     E  	call _Crom2PromNext
 201  0069  0080     E  	mov rd,a
 201  006A  0700     E  	mov a,ra
 201  006B  0080     R  	mov _sensor[16],a
 201  006C  0700     E  	mov a,rb
 201  006D  0080     R  	mov _sensor[17],a
 201  006E  0700     E  	mov a,rc
 201  006F  0080     R  	mov _sensor[18],a
 201  0070  0700     E  	mov a,rd
 201  0071  0080     R  	mov _sensor[19],a
 201  0072              _L13:
 202  0072              #line 202 "E:\work\Quby\CODE\holtek dev\test5342\sensor.c"
 202  0072  0700     R  	mov a,_Sensor_Weight_Filter_2[0]
 202  0073  0080     E  	mov ra,a
 202  0074  1F00     E  	clr rb
 202  0075  340A        	clr c
 202  0076  1A80     E  	rlc ra
 202  0077  1A80     E  	rlc rb
 202  0078  340A        	clr c
 202  0079  1A80     E  	rlc ra
 202  007A  1A80     E  	rlc rb
 202  007B  0F00     R  	mov a,low offset _sensor_weight_window
 202  007C  0380     E  	addm a,ra
 202  007D  0F00     R  	mov a,high offset _sensor_weight_window
 202  007E  1380     E  	adcm a,rb
 202  007F  0700     E  	mov a,ra
 202  0080  0083        	mov mp,a
 202  0081  0700     E  	mov a,rb
 202  0082  0084        	mov sbp,a
 202  0083  2000     E  	call _Crom2Prom
 202  0084  0080     E  	mov re,a
 202  0085  2000     E  	call _Crom2PromNext
 202  0086  0080     E  	mov rf,a
 202  0087  2000     E  	call _Crom2PromNext
 202  0088  0080     E  	mov rg,a
 202  0089  2000     E  	call _Crom2PromNext
 202  008A  0080     E  	mov rh,a
 202  008B  0700     R  	mov a,_sensor[20]
 202  008C  0080     E  	mov ra,a
 202  008D  0700     R  	mov a,_sensor[21]
 202  008E  0080     E  	mov rb,a
 202  008F  0700     R  	mov a,_sensor[22]
 202  0090  0080     E  	mov rc,a
 202  0091  0700     R  	mov a,_sensor[23]
 202  0092  0080     E  	mov rd,a
 202  0093  0700     E  	mov a,re
 202  0094  0200     E  	sub a,ra
 202  0095  0700     E  	mov a,rf
 202  0096  1200     E  	sbc a,rb
 202  0097  0700     E  	mov a,rg
 202  0098  1200     E  	sbc a,rc
 202  0099  0700     E  	mov a,rh
"File: sensor.c      Assembler  Version HGASM0202      Page 14

 202  009A  1200     E  	sbc a,rd
 202  009B  3C0A        	sz c
 202  009C  2800     R  	jmp _L14
 202  009D  0700     R  	mov a,_Sensor_Weight_Filter_2[0]
 202  009E  0080     E  	mov ra,a
 202  009F  1F00     E  	clr rb
 202  00A0  340A        	clr c
 202  00A1  1A80     E  	rlc ra
 202  00A2  1A80     E  	rlc rb
 202  00A3  340A        	clr c
 202  00A4  1A80     E  	rlc ra
 202  00A5  1A80     E  	rlc rb
 202  00A6  0F00     R  	mov a,low offset _sensor_weight_window
 202  00A7  0380     E  	addm a,ra
 202  00A8  0F00     R  	mov a,high offset _sensor_weight_window
 202  00A9  1380     E  	adcm a,rb
 202  00AA  0700     E  	mov a,ra
 202  00AB  0083        	mov mp,a
 202  00AC  0700     E  	mov a,rb
 202  00AD  0084        	mov sbp,a
 202  00AE  2000     E  	call _Crom2Prom
 202  00AF  0080     E  	mov ra,a
 202  00B0  2000     E  	call _Crom2PromNext
 202  00B1  0080     E  	mov rb,a
 202  00B2  2000     E  	call _Crom2PromNext
 202  00B3  0080     E  	mov rc,a
 202  00B4  2000     E  	call _Crom2PromNext
 202  00B5  0080     E  	mov rd,a
 202  00B6  0700     E  	mov a,ra
 202  00B7  0080     R  	mov _sensor[20],a
 202  00B8  0700     E  	mov a,rb
 202  00B9  0080     R  	mov _sensor[21],a
 202  00BA  0700     E  	mov a,rc
 202  00BB  0080     R  	mov _sensor[22],a
 202  00BC  0700     E  	mov a,rd
 202  00BD  0080     R  	mov _sensor[23],a
 202  00BE              _L14:
 203  00BE              #line 203 "E:\work\Quby\CODE\holtek dev\test5342\sensor.c"
 203  00BE  0700     R  	mov a,_sensor[12]
 203  00BF  0080     E  	mov re,a
 203  00C0  0700     R  	mov a,_sensor[13]
 203  00C1  0080     E  	mov rf,a
 203  00C2  0700     R  	mov a,_sensor[14]
 203  00C3  0080     E  	mov rg,a
 203  00C4  0700     R  	mov a,_sensor[15]
 203  00C5  0080     E  	mov rh,a
 203  00C6  0700     R  	mov a,_Sensor_Weight_Filter_2[0]
 203  00C7  0080     E  	mov ra,a
 203  00C8  1F00     E  	clr rb
 203  00C9  340A        	clr c
 203  00CA  1A80     E  	rlc ra
 203  00CB  1A80     E  	rlc rb
 203  00CC  340A        	clr c
 203  00CD  1A80     E  	rlc ra
 203  00CE  1A80     E  	rlc rb
 203  00CF  0F00     R  	mov a,low offset _sensor_weight_window
 203  00D0  0380     E  	addm a,ra
 203  00D1  0F00     R  	mov a,high offset _sensor_weight_window
 203  00D2  1380     E  	adcm a,rb
 203  00D3  0700     E  	mov a,ra
"File: sensor.c      Assembler  Version HGASM0202      Page 15

 203  00D4  0083        	mov mp,a
 203  00D5  0700     E  	mov a,rb
 203  00D6  0084        	mov sbp,a
 203  00D7  2000     E  	call _Crom2Prom
 203  00D8  0080     E  	mov ra,a
 203  00D9  2000     E  	call _Crom2PromNext
 203  00DA  0080     E  	mov rb,a
 203  00DB  2000     E  	call _Crom2PromNext
 203  00DC  0080     E  	mov rc,a
 203  00DD  2000     E  	call _Crom2PromNext
 203  00DE  0080     E  	mov rd,a
 203  00DF  0700     E  	mov a,re
 203  00E0  0380     E  	addm a,ra
 203  00E1  0700     E  	mov a,rf
 203  00E2  1380     E  	adcm a,rb
 203  00E3  0700     E  	mov a,rg
 203  00E4  1380     E  	adcm a,rc
 203  00E5  0700     E  	mov a,rh
 203  00E6  1380     E  	adcm a,rd
 203  00E7  0700     E  	mov a,ra
 203  00E8  0080     R  	mov _sensor[12],a
 203  00E9  0700     E  	mov a,rb
 203  00EA  0080     R  	mov _sensor[13],a
 203  00EB  0700     E  	mov a,rc
 203  00EC  0080     R  	mov _sensor[14],a
 203  00ED  0700     E  	mov a,rd
 203  00EE  0080     R  	mov _sensor[15],a
 200  00EF              #line 200 "E:\work\Quby\CODE\holtek dev\test5342\sensor.c"
 200  00EF  0700     R  	mov a,_Sensor_Weight_Filter_2[0]
 200  00F0  0080     E  	mov ra,a
 200  00F1  1400     E  	inca ra
 200  00F2  0080     R  	mov _Sensor_Weight_Filter_2[0],a
 200  00F3              _L12:
 200  00F3  0F05        	mov a,5
 200  00F4  0200     R  	sub a,_Sensor_Weight_Filter_2[0]
 200  00F5  3C0A        	sz c
 200  00F6  2800     R  	jmp _L15
 205  00F7              #line 205 "E:\work\Quby\CODE\holtek dev\test5342\sensor.c"
 205  00F7  0700     R  	mov a,_sensor[12]
 205  00F8  0080     E  	mov re,a
 205  00F9  0700     R  	mov a,_sensor[13]
 205  00FA  0080     E  	mov rf,a
 205  00FB  0700     R  	mov a,_sensor[14]
 205  00FC  0080     E  	mov rg,a
 205  00FD  0700     R  	mov a,_sensor[15]
 205  00FE  0080     E  	mov rh,a
 205  00FF  0700     R  	mov a,_sensor[16]
 205  0100  0080     E  	mov ra,a
 205  0101  0700     R  	mov a,_sensor[17]
 205  0102  0080     E  	mov rb,a
 205  0103  0700     R  	mov a,_sensor[18]
 205  0104  0080     E  	mov rc,a
 205  0105  0700     R  	mov a,_sensor[19]
 205  0106  0080     E  	mov rd,a
 205  0107  0700     E  	mov a,re
 205  0108  0280     E  	subm a,ra
 205  0109  0700     E  	mov a,rf
 205  010A  1280     E  	sbcm a,rb
 205  010B  0700     E  	mov a,rg
 205  010C  1280     E  	sbcm a,rc
"File: sensor.c      Assembler  Version HGASM0202      Page 16

 205  010D  0700     E  	mov a,rh
 205  010E  1280     E  	sbcm a,rd
 205  010F  0700     E  	mov a,ra
 205  0110  0080     R  	mov _sensor[12],a
 205  0111  0700     E  	mov a,rb
 205  0112  0080     R  	mov _sensor[13],a
 205  0113  0700     E  	mov a,rc
 205  0114  0080     R  	mov _sensor[14],a
 205  0115  0700     E  	mov a,rd
 205  0116  0080     R  	mov _sensor[15],a
 206  0117              #line 206 "E:\work\Quby\CODE\holtek dev\test5342\sensor.c"
 206  0117  0700     R  	mov a,_sensor[12]
 206  0118  0080     E  	mov re,a
 206  0119  0700     R  	mov a,_sensor[13]
 206  011A  0080     E  	mov rf,a
 206  011B  0700     R  	mov a,_sensor[14]
 206  011C  0080     E  	mov rg,a
 206  011D  0700     R  	mov a,_sensor[15]
 206  011E  0080     E  	mov rh,a
 206  011F  0700     R  	mov a,_sensor[20]
 206  0120  0080     E  	mov ra,a
 206  0121  0700     R  	mov a,_sensor[21]
 206  0122  0080     E  	mov rb,a
 206  0123  0700     R  	mov a,_sensor[22]
 206  0124  0080     E  	mov rc,a
 206  0125  0700     R  	mov a,_sensor[23]
 206  0126  0080     E  	mov rd,a
 206  0127  0700     E  	mov a,re
 206  0128  0280     E  	subm a,ra
 206  0129  0700     E  	mov a,rf
 206  012A  1280     E  	sbcm a,rb
 206  012B  0700     E  	mov a,rg
 206  012C  1280     E  	sbcm a,rc
 206  012D  0700     E  	mov a,rh
 206  012E  1280     E  	sbcm a,rd
 206  012F  0700     E  	mov a,ra
 206  0130  0080     R  	mov _sensor[12],a
 206  0131  0700     E  	mov a,rb
 206  0132  0080     R  	mov _sensor[13],a
 206  0133  0700     E  	mov a,rc
 206  0134  0080     R  	mov _sensor[14],a
 206  0135  0700     E  	mov a,rd
 206  0136  0080     R  	mov _sensor[15],a
 207  0137              #line 207 "E:\work\Quby\CODE\holtek dev\test5342\sensor.c"
 207  0137  0700     R  	mov a,_sensor[12]
 207  0138  0080     E  	mov ra,a
 207  0139  0700     R  	mov a,_sensor[13]
 207  013A  0080     E  	mov rb,a
 207  013B  0700     R  	mov a,_sensor[14]
 207  013C  0080     E  	mov rc,a
 207  013D  0700     R  	mov a,_sensor[15]
 207  013E  0080     E  	mov rd,a
 207  013F  0F02        	mov a,2
 207  0140              _LI1:
 207  0140  340A        	clr c
 207  0141  1B80     E  	rrc rd
 207  0142  1B80     E  	rrc rc
 207  0143  1B80     E  	rrc rb
 207  0144  1B80     E  	rrc ra
 207  0145  1785        	sdz acc
"File: sensor.c      Assembler  Version HGASM0202      Page 17

 207  0146  2800     R  	jmp _LI1
 207  0147  0700     E  	mov a,ra
 207  0148  0080     R  	mov _sensor[0],a
 207  0149  0700     E  	mov a,rb
 207  014A  0080     R  	mov _sensor[1],a
 207  014B  0700     E  	mov a,rc
 207  014C  0080     R  	mov _sensor[2],a
 207  014D  0700     E  	mov a,rd
 207  014E  0080     R  	mov _sensor[3],a
 207  014F  0003        	ret
 207  0150              _Sensor_Weight_Filter endp
 207  0150              #line 207 "E:\work\Quby\CODE\holtek dev\test5342\sensor.c"
 207  0150              #pragma debug scope 1 1
 207  0150              #pragma debug struct_end
 207  0150              #pragma debug struct_end
 207  0150              #pragma debug union_end
 207  0150              #pragma debug union_end
 207  0150              #pragma debug variable 45 1 ___intc0 "__intc0" 1
 207  0150              #pragma debug struct_end
 207  0150              #pragma debug struct_end
 207  0150              #pragma debug union_end
 207  0150              #pragma debug union_end
 207  0150              #pragma debug variable 47 1 ___adcs "__adcs" 1
 207  0150              #pragma debug struct_end
 207  0150              #pragma debug struct_end
 207  0150              #pragma debug union_end
 207  0150              #pragma debug union_end
 207  0150              #pragma debug variable 49 1 ___adcr0 "__adcr0" 1
 207  0150              #pragma debug struct_end
 207  0150              #pragma debug struct_end
 207  0150              #pragma debug union_end
 207  0150              #pragma debug union_end
 207  0150              #pragma debug variable 51 1 ___adcr1 "__adcr1" 1
 207  0150              #pragma debug struct_end
 207  0150              #pragma debug struct_end
 207  0150              #pragma debug union_end
 207  0150              #pragma debug union_end
 207  0150              #pragma debug variable 53 1 ___pwrc "__pwrc" 1
 207  0150              #pragma debug struct_end
 207  0150              #pragma debug struct_end
 207  0150              #pragma debug union_end
 207  0150              #pragma debug union_end
 207  0150              #pragma debug variable 55 1 ___pgac0 "__pgac0" 1
 207  0150              #pragma debug struct_end
 207  0150              #pragma debug struct_end
 207  0150              #pragma debug union_end
 207  0150              #pragma debug union_end
 207  0150              #pragma debug variable 57 1 ___pgac1 "__pgac1" 1
 207  0150              #pragma debug struct_end
 207  0150              #pragma debug struct_end
 207  0150              #pragma debug union_end
 207  0150              #pragma debug union_end
 207  0150              #pragma debug variable 59 1 ___pgacs "__pgacs" 1
 207  0150              #pragma debug variable 8 1 ___adrl "__adrl" 1
 207  0150              #pragma debug variable 8 1 ___adrm "__adrm" 1
 207  0150              #pragma debug variable 8 1 ___adrh "__adrh" 1
 207  0150              extern r1:byte
 207  0150              extern r2:byte
 207  0150              
 207  0150              ; 
"File: sensor.c      Assembler  Version HGASM0202      Page 18

 207  0150              ; Generated by holtek-gcc v3.19, Thu Nov 03 13:21:59 2022
 207  0150              ; Rebuild 718
 207  0150              ; end of file


        0 Errors, 0